target datalayout = "e-m:e-p270:32:32-p271:32:32-p272:64:64-i64:64-i128:128-f80:128-n8:16:32:64-S128"
target triple = "x86_64-pc-linux-gnu"

%struct.APK_DATA_st = type { ptr, i64, i32 }

@mainctx = internal global ptr null, align 8
@.str.28 = private unnamed_addr constant [34 x i8] c"../openssl/test/evp_extra_test2.c\00", align 1
@.str.36 = private unnamed_addr constant [65 x i8] c"pkey = d2i_AutoPrivateKey_ex(NULL, &p, input_len, mainctx, NULL)\00", align 1
@.str.37 = private unnamed_addr constant [2 x i8] c"p\00", align 1
@.str.38 = private unnamed_addr constant [18 x i8] c"input + input_len\00", align 1
@.str.39 = private unnamed_addr constant [22 x i8] c"EVP_PKEY_get_id(pkey)\00", align 1
@.str.40 = private unnamed_addr constant [12 x i8] c"expected_id\00", align 1
@.str.41 = private unnamed_addr constant [61 x i8] c"EVP_PKEY_get_bn_param(pkey, OSSL_PKEY_PARAM_RSA_D, &priv_bn)\00", align 1
@.str.42 = private unnamed_addr constant [2 x i8] c"d\00", align 1
@.str.43 = private unnamed_addr constant [94 x i8] c"EVP_PKEY_get_octet_string_param(pkey, OSSL_PKEY_PARAM_PRIV_KEY, buffer, sizeof(buffer), &len)\00", align 1
@.str.44 = private unnamed_addr constant [5 x i8] c"priv\00", align 1
@.str.45 = private unnamed_addr constant [64 x i8] c"EVP_PKEY_get_bn_param(pkey, OSSL_PKEY_PARAM_PRIV_KEY, &priv_bn)\00", align 1
@.str.46 = private unnamed_addr constant [58 x i8] c"EVP_PKEY_get_bn_param(pkey, OSSL_PKEY_PARAM_FFC_P, &p_bn)\00", align 1
@.str.47 = private unnamed_addr constant [58 x i8] c"EVP_PKEY_get_bn_param(pkey, OSSL_PKEY_PARAM_FFC_G, &g_bn)\00", align 1
@.str.48 = private unnamed_addr constant [2 x i8] c"g\00", align 1

; Function Attrs: nounwind uwtable
define internal i32 @test_d2i_AutoPrivateKey_ex(i32 noundef %0) #0 {
  %2 = alloca i32, align 4
  %3 = alloca i32, align 4
  %4 = alloca i32, align 4
  %5 = alloca ptr, align 8
  %6 = alloca ptr, align 8
  %7 = alloca ptr, align 8
  %8 = alloca ptr, align 8
  %9 = alloca i64, align 8
  %10 = alloca i32, align 4
  %11 = alloca ptr, align 8
  %12 = alloca ptr, align 8
  %13 = alloca ptr, align 8
  %14 = alloca [32 x i8], align 16
  %15 = alloca i64, align 8
  %16 = alloca i32, align 4
  store i32 %0, ptr %3, align 4, !tbaa !11
  call void @llvm.lifetime.start.p0(i64 4, ptr %4) #7
  store i32 0, ptr %4, align 4, !tbaa !11
  call void @llvm.lifetime.start.p0(i64 8, ptr %5) #7
  call void @llvm.lifetime.start.p0(i64 8, ptr %6) #7
  store ptr null, ptr %6, align 8, !tbaa !13
  call void @llvm.lifetime.start.p0(i64 8, ptr %7) #7
  %17 = load i32, ptr %3, align 4, !tbaa !11
  %18 = sext i32 %17 to i64
  %19 = getelementptr inbounds [6 x %struct.APK_DATA_st], ptr @keydata, i64 0, i64 %18
  store ptr %19, ptr %7, align 8, !tbaa !15
  call void @llvm.lifetime.start.p0(i64 8, ptr %8) #7
  %20 = load ptr, ptr %7, align 8, !tbaa !15
  %21 = getelementptr inbounds nuw %struct.APK_DATA_st, ptr %20, i32 0, i32 0
  %22 = load ptr, ptr %21, align 8, !tbaa !17
  store ptr %22, ptr %8, align 8, !tbaa !21
  call void @llvm.lifetime.start.p0(i64 8, ptr %9) #7
  %23 = load ptr, ptr %7, align 8, !tbaa !15
  %24 = getelementptr inbounds nuw %struct.APK_DATA_st, ptr %23, i32 0, i32 1
  %25 = load i64, ptr %24, align 8, !tbaa !22
  store i64 %25, ptr %9, align 8, !tbaa !23
  call void @llvm.lifetime.start.p0(i64 4, ptr %10) #7
  %26 = load ptr, ptr %7, align 8, !tbaa !15
  %27 = getelementptr inbounds nuw %struct.APK_DATA_st, ptr %26, i32 0, i32 2
  %28 = load i32, ptr %27, align 8, !tbaa !24
  store i32 %28, ptr %10, align 4, !tbaa !11
  call void @llvm.lifetime.start.p0(i64 8, ptr %11) #7
  store ptr null, ptr %11, align 8, !tbaa !25
  call void @llvm.lifetime.start.p0(i64 8, ptr %12) #7
  store ptr null, ptr %12, align 8, !tbaa !25
  call void @llvm.lifetime.start.p0(i64 8, ptr %13) #7
  store ptr null, ptr %13, align 8, !tbaa !25
  %29 = load ptr, ptr %8, align 8, !tbaa !21
  store ptr %29, ptr %5, align 8, !tbaa !21
  %30 = load i64, ptr %9, align 8, !tbaa !23
  %31 = load ptr, ptr @mainctx, align 8, !tbaa !4
  %32 = call ptr @d2i_AutoPrivateKey_ex(ptr noundef null, ptr noundef %5, i64 noundef %30, ptr noundef %31, ptr noundef null)
  store ptr %32, ptr %6, align 8, !tbaa !13
  %33 = call i32 @test_ptr(ptr noundef @.str.28, i32 noundef 605, ptr noundef @.str.36, ptr noundef %32)
  %34 = icmp ne i32 %33, 0
  br i1 %34, label %35, label %48

35:                                               ; preds = %1
  %36 = load ptr, ptr %5, align 8, !tbaa !21
  %37 = load ptr, ptr %8, align 8, !tbaa !21
  %38 = load i64, ptr %9, align 8, !tbaa !23
  %39 = getelementptr inbounds nuw i8, ptr %37, i64 %38
  %40 = call i32 @test_ptr_eq(ptr noundef @.str.28, i32 noundef 606, ptr noundef @.str.37, ptr noundef @.str.38, ptr noundef %36, ptr noundef %39)
  %41 = icmp ne i32 %40, 0
  br i1 %41, label %42, label %48

42:                                               ; preds = %35
  %43 = load ptr, ptr %6, align 8, !tbaa !13
  %44 = call i32 @EVP_PKEY_get_id(ptr noundef %43)
  %45 = load i32, ptr %10, align 4, !tbaa !11
  %46 = call i32 @test_int_eq(ptr noundef @.str.28, i32 noundef 607, ptr noundef @.str.39, ptr noundef @.str.40, i32 noundef %44, i32 noundef %45)
  %47 = icmp ne i32 %46, 0
  br i1 %47, label %49, label %48

48:                                               ; preds = %42, %35, %1
  br label %113

49:                                               ; preds = %42
  %50 = load ptr, ptr %7, align 8, !tbaa !15
  %51 = getelementptr inbounds nuw %struct.APK_DATA_st, ptr %50, i32 0, i32 2
  %52 = load i32, ptr %51, align 8, !tbaa !24
  %53 = icmp eq i32 %52, 6
  br i1 %53, label %54, label %63

54:                                               ; preds = %49
  %55 = load ptr, ptr %6, align 8, !tbaa !13
  %56 = call i32 @EVP_PKEY_get_bn_param(ptr noundef %55, ptr noundef @.str.42, ptr noundef %13)
  %57 = icmp ne i32 %56, 0
  %58 = zext i1 %57 to i32
  %59 = call i32 @test_true(ptr noundef @.str.28, i32 noundef 612, ptr noundef @.str.41, i32 noundef %58)
  %60 = icmp ne i32 %59, 0
  br i1 %60, label %62, label %61

61:                                               ; preds = %54
  br label %113

62:                                               ; preds = %54
  br label %91

63:                                               ; preds = %49
  %64 = load ptr, ptr %7, align 8, !tbaa !15
  %65 = getelementptr inbounds nuw %struct.APK_DATA_st, ptr %64, i32 0, i32 2
  %66 = load i32, ptr %65, align 8, !tbaa !24
  %67 = icmp eq i32 %66, 1034
  br i1 %67, label %68, label %81

68:                                               ; preds = %63
  call void @llvm.lifetime.start.p0(i64 32, ptr %14) #7
  call void @llvm.lifetime.start.p0(i64 8, ptr %15) #7
  %69 = load ptr, ptr %6, align 8, !tbaa !13
  %70 = getelementptr inbounds [32 x i8], ptr %14, i64 0, i64 0
  %71 = call i32 @EVP_PKEY_get_octet_string_param(ptr noundef %69, ptr noundef @.str.44, ptr noundef %70, i64 noundef 32, ptr noundef %15)
  %72 = icmp ne i32 %71, 0
  %73 = zext i1 %72 to i32
  %74 = call i32 @test_true(ptr noundef @.str.28, i32 noundef 621, ptr noundef @.str.43, i32 noundef %73)
  %75 = icmp ne i32 %74, 0
  br i1 %75, label %77, label %76

76:                                               ; preds = %68
  store i32 2, ptr %16, align 4
  br label %78

77:                                               ; preds = %68
  store i32 0, ptr %16, align 4
  br label %78

78:                                               ; preds = %76, %77
  call void @llvm.lifetime.end.p0(i64 8, ptr %15) #7
  call void @llvm.lifetime.end.p0(i64 32, ptr %14) #7
  %79 = load i32, ptr %16, align 4
  switch i32 %79, label %119 [
    i32 0, label %80
    i32 2, label %113
  ]

80:                                               ; preds = %78
  br label %90

81:                                               ; preds = %63
  %82 = load ptr, ptr %6, align 8, !tbaa !13
  %83 = call i32 @EVP_PKEY_get_bn_param(ptr noundef %82, ptr noundef @.str.44, ptr noundef %13)
  %84 = icmp ne i32 %83, 0
  %85 = zext i1 %84 to i32
  %86 = call i32 @test_true(ptr noundef @.str.28, i32 noundef 625, ptr noundef @.str.45, i32 noundef %85)
  %87 = icmp ne i32 %86, 0
  br i1 %87, label %89, label %88

88:                                               ; preds = %81
  br label %113

89:                                               ; preds = %81
  br label %90

90:                                               ; preds = %89, %80
  br label %91

91:                                               ; preds = %90, %62
  %92 = load ptr, ptr %7, align 8, !tbaa !15
  %93 = getelementptr inbounds nuw %struct.APK_DATA_st, ptr %92, i32 0, i32 2
  %94 = load i32, ptr %93, align 8, !tbaa !24
  %95 = icmp eq i32 %94, 28
  br i1 %95, label %96, label %112

96:                                               ; preds = %91
  %97 = load ptr, ptr %6, align 8, !tbaa !13
  %98 = call i32 @EVP_PKEY_get_bn_param(ptr noundef %97, ptr noundef @.str.37, ptr noundef %11)
  %99 = icmp ne i32 %98, 0
  %100 = zext i1 %99 to i32
  %101 = call i32 @test_true(ptr noundef @.str.28, i32 noundef 630, ptr noundef @.str.46, i32 noundef %100)
  %102 = icmp ne i32 %101, 0
  br i1 %102, label %103, label %110

103:                                              ; preds = %96
  %104 = load ptr, ptr %6, align 8, !tbaa !13
  %105 = call i32 @EVP_PKEY_get_bn_param(ptr noundef %104, ptr noundef @.str.48, ptr noundef %12)
  %106 = icmp ne i32 %105, 0
  %107 = zext i1 %106 to i32
  %108 = call i32 @test_true(ptr noundef @.str.28, i32 noundef 632, ptr noundef @.str.47, i32 noundef %107)
  %109 = icmp ne i32 %108, 0
  br i1 %109, label %111, label %110

110:                                              ; preds = %103, %96
  br label %113

111:                                              ; preds = %103
  br label %112

112:                                              ; preds = %111, %91
  store i32 1, ptr %4, align 4, !tbaa !11
  br label %113

113:                                              ; preds = %112, %78, %110, %88, %61, %48
  %114 = load ptr, ptr %11, align 8, !tbaa !25
  call void @BN_free(ptr noundef %114)
  %115 = load ptr, ptr %12, align 8, !tbaa !25
  call void @BN_free(ptr noundef %115)
  %116 = load ptr, ptr %13, align 8, !tbaa !25
  call void @BN_free(ptr noundef %116)
  %117 = load ptr, ptr %6, align 8, !tbaa !13
  call void @EVP_PKEY_free(ptr noundef %117)
  %118 = load i32, ptr %4, align 4, !tbaa !11
  store i32 %118, ptr %2, align 4
  store i32 1, ptr %16, align 4
  br label %119

119:                                              ; preds = %113, %78
  call void @llvm.lifetime.end.p0(i64 8, ptr %13) #7
  call void @llvm.lifetime.end.p0(i64 8, ptr %12) #7
  call void @llvm.lifetime.end.p0(i64 8, ptr %11) #7
  call void @llvm.lifetime.end.p0(i64 4, ptr %10) #7
  call void @llvm.lifetime.end.p0(i64 8, ptr %9) #7
  call void @llvm.lifetime.end.p0(i64 8, ptr %8) #7
  call void @llvm.lifetime.end.p0(i64 8, ptr %7) #7
  call void @llvm.lifetime.end.p0(i64 8, ptr %6) #7
  call void @llvm.lifetime.end.p0(i64 8, ptr %5) #7
  call void @llvm.lifetime.end.p0(i64 4, ptr %4) #7
  %120 = load i32, ptr %2, align 4
  ret i32 %120
}