; Function Attrs: nounwind uwtable
define internal range(i32 0, 2) i32 @test_d2i_AutoPrivateKey_ex(i32 noundef %0) #0 {
  %2 = alloca ptr, align 8
  %3 = alloca ptr, align 8
  %4 = alloca ptr, align 8
  %5 = alloca ptr, align 8
  %6 = alloca [32 x i8], align 16
  %7 = alloca i64, align 8
  call void @llvm.lifetime.start.p0(i64 8, ptr nonnull %2) #7
  %8 = sext i32 %0 to i64
  %9 = getelementptr inbounds [6 x %struct.APK_DATA_st], ptr @keydata, i64 0, i64 %8
  %10 = load ptr, ptr %9, align 8, !tbaa !9
  %11 = getelementptr inbounds nuw i8, ptr %9, i64 8
  %12 = load i64, ptr %11, align 8, !tbaa !14
  %13 = getelementptr inbounds nuw i8, ptr %9, i64 16
  %14 = load i32, ptr %13, align 8, !tbaa !15
  call void @llvm.lifetime.start.p0(i64 8, ptr nonnull %3) #7
  store ptr null, ptr %3, align 8, !tbaa !16
  call void @llvm.lifetime.start.p0(i64 8, ptr nonnull %4) #7
  store ptr null, ptr %4, align 8, !tbaa !16
  call void @llvm.lifetime.start.p0(i64 8, ptr nonnull %5) #7
  store ptr null, ptr %5, align 8, !tbaa !16
  store ptr %10, ptr %2, align 8, !tbaa !18
  %15 = load ptr, ptr @mainctx, align 8, !tbaa !4
  %16 = call ptr @d2i_AutoPrivateKey_ex(ptr noundef null, ptr noundef nonnull %2, i64 noundef %12, ptr noundef %15, ptr noundef null) #7
  %17 = call i32 @test_ptr(ptr noundef nonnull @.str.28, i32 noundef 605, ptr noundef nonnull @.str.36, ptr noundef %16) #7
  %.not = icmp eq i32 %17, 0
  br i1 %.not, label %53, label %18

18:                                               ; preds = %1
  %19 = load ptr, ptr %2, align 8, !tbaa !18
  %20 = getelementptr inbounds nuw i8, ptr %10, i64 %12
  %21 = call i32 @test_ptr_eq(ptr noundef nonnull @.str.28, i32 noundef 606, ptr noundef nonnull @.str.37, ptr noundef nonnull @.str.38, ptr noundef %19, ptr noundef %20) #7
  %.not24 = icmp eq i32 %21, 0
  br i1 %.not24, label %53, label %22

22:                                               ; preds = %18
  %23 = call i32 @EVP_PKEY_get_id(ptr noundef %16) #7
  %24 = call i32 @test_int_eq(ptr noundef nonnull @.str.28, i32 noundef 607, ptr noundef nonnull @.str.39, ptr noundef nonnull @.str.40, i32 noundef %23, i32 noundef %14) #7
  %.not25 = icmp eq i32 %24, 0
  br i1 %.not25, label %53, label %25

25:                                               ; preds = %22
  switch i32 %14, label %36 [
    i32 6, label %26
    i32 1034, label %31
  ]

26:                                               ; preds = %25
  %27 = call i32 @EVP_PKEY_get_bn_param(ptr noundef %16, ptr noundef nonnull @.str.42, ptr noundef nonnull %5) #7
  %28 = icmp ne i32 %27, 0
  %29 = zext i1 %28 to i32
  %30 = call i32 @test_true(ptr noundef nonnull @.str.28, i32 noundef 612, ptr noundef nonnull @.str.41, i32 noundef %29) #7
  %.not28 = icmp eq i32 %30, 0
  br i1 %.not28, label %53, label %.thread

31:                                               ; preds = %25
  call void @llvm.lifetime.start.p0(i64 32, ptr nonnull %6) #7
  call void @llvm.lifetime.start.p0(i64 8, ptr nonnull %7) #7
  %32 = call i32 @EVP_PKEY_get_octet_string_param(ptr noundef %16, ptr noundef nonnull @.str.44, ptr noundef nonnull %6, i64 noundef 32, ptr noundef nonnull %7) #7
  %33 = icmp ne i32 %32, 0
  %34 = zext i1 %33 to i32
  %35 = call i32 @test_true(ptr noundef nonnull @.str.28, i32 noundef 621, ptr noundef nonnull @.str.43, i32 noundef %34) #7
  %.not27 = icmp eq i32 %35, 0
  call void @llvm.lifetime.end.p0(i64 8, ptr nonnull %7) #7
  call void @llvm.lifetime.end.p0(i64 32, ptr nonnull %6) #7
  br i1 %.not27, label %53, label %.thread

36:                                               ; preds = %25
  %37 = call i32 @EVP_PKEY_get_bn_param(ptr noundef %16, ptr noundef nonnull @.str.44, ptr noundef nonnull %5) #7
  %38 = icmp ne i32 %37, 0
  %39 = zext i1 %38 to i32
  %40 = call i32 @test_true(ptr noundef nonnull @.str.28, i32 noundef 625, ptr noundef nonnull @.str.45, i32 noundef %39) #7
  %.not26 = icmp eq i32 %40, 0
  br i1 %.not26, label %53, label %41

41:                                               ; preds = %36
  %42 = icmp eq i32 %14, 28
  br i1 %42, label %43, label %.thread

43:                                               ; preds = %41
  %44 = call i32 @EVP_PKEY_get_bn_param(ptr noundef %16, ptr noundef nonnull @.str.37, ptr noundef nonnull %3) #7
  %45 = icmp ne i32 %44, 0
  %46 = zext i1 %45 to i32
  %47 = call i32 @test_true(ptr noundef nonnull @.str.28, i32 noundef 630, ptr noundef nonnull @.str.46, i32 noundef %46) #7
  %.not29 = icmp eq i32 %47, 0
  br i1 %.not29, label %53, label %48

48:                                               ; preds = %43
  %49 = call i32 @EVP_PKEY_get_bn_param(ptr noundef %16, ptr noundef nonnull @.str.48, ptr noundef nonnull %4) #7
  %50 = icmp ne i32 %49, 0
  %51 = zext i1 %50 to i32
  %52 = call i32 @test_true(ptr noundef nonnull @.str.28, i32 noundef 632, ptr noundef nonnull @.str.47, i32 noundef %51) #7
  %.not30 = icmp eq i32 %52, 0
  br i1 %.not30, label %53, label %.thread

.thread:                                          ; preds = %26, %31, %48, %41
  br label %53

53:                                               ; preds = %31, %43, %48, %36, %26, %1, %18, %22, %.thread
  %.022 = phi i32 [ 1, %.thread ], [ 0, %48 ], [ 0, %43 ], [ 0, %26 ], [ 0, %31 ], [ 0, %36 ], [ 0, %22 ], [ 0, %18 ], [ 0, %1 ]
  %54 = load ptr, ptr %3, align 8, !tbaa !16
  call void @BN_free(ptr noundef %54) #7
  %55 = load ptr, ptr %4, align 8, !tbaa !16
  call void @BN_free(ptr noundef %55) #7
  %56 = load ptr, ptr %5, align 8, !tbaa !16
  call void @BN_free(ptr noundef %56) #7
  call void @EVP_PKEY_free(ptr noundef %16) #7
  call void @llvm.lifetime.end.p0(i64 8, ptr nonnull %5) #7
  call void @llvm.lifetime.end.p0(i64 8, ptr nonnull %4) #7
  call void @llvm.lifetime.end.p0(i64 8, ptr nonnull %3) #7
  call void @llvm.lifetime.end.p0(i64 8, ptr nonnull %2) #7
  ret i32 %.022
}